target datalayout = "e-m:e-p270:32:32-p271:32:32-p272:64:64-i64:64-i128:128-f80:128-n8:16:32:64-S128"
target triple = "x86_64-pc-linux-gnu"

%class.svector.1 = type { %class.vector.2 }
%class.vector.2 = type { ptr }
%class.svector.4 = type { %class.vector.5 }
%class.vector.5 = type { ptr }
%"class.sat::local_search" = type { %"class.sat::i_local_search", %"struct.sat::local_search::stats", %"class.sat::local_search_config", %class.vector, %class.svector, %class.svector.1, %class.vector.3, %class.svector.4, %class.svector.4, i32, i8, i8, %class.svector.1, %class.svector.1, %class.svector.1, i8, i32, double, double, i32, i32, double, double, %class.reslimit, %class.random_gen, ptr, %class.svector.9 }
%"class.sat::i_local_search" = type { ptr }
%"struct.sat::local_search::stats" = type { i32, i32 }
%"class.sat::local_search_config" = type { i32, i32, i32, i8, i8, double }
%class.vector = type { ptr }
%class.svector = type { %class.vector.0 }
%class.vector.0 = type { ptr }
%class.vector.3 = type { ptr }
%class.reslimit = type { %"struct.std::atomic", i8, i64, i64, %class.svector.6, %class.ptr_vector }
%"struct.std::atomic" = type { %"struct.std::__atomic_base" }
%"struct.std::__atomic_base" = type { i32 }
%class.svector.6 = type { %class.vector.7 }
%class.vector.7 = type { ptr }
%class.ptr_vector = type { %class.vector.8 }
%class.vector.8 = type { ptr }
%class.random_gen = type { i32 }
%class.svector.9 = type { %class.vector.10 }
%class.vector.10 = type { ptr }

; Function Attrs: mustprogress nounwind uwtable
define linkonce_odr hidden noundef i32 @_ZNK6vectorIjLb0EjE4sizeEv(ptr noundef nonnull align 8 dereferenceable(8) %0) #6 comdat align 2 {
  %2 = alloca i32, align 4
  %3 = alloca ptr, align 8
  store ptr %0, ptr %3, align 8, !tbaa !66
  %4 = load ptr, ptr %3, align 8
  %5 = getelementptr inbounds nuw %class.vector.2, ptr %4, i32 0, i32 0
  %6 = load ptr, ptr %5, align 8, !tbaa !68
  %7 = icmp eq ptr %6, null
  br i1 %7, label %8, label %9

8:                                                ; preds = %1
  store i32 0, ptr %2, align 4
  br label %14

9:                                                ; preds = %1
  %10 = getelementptr inbounds nuw %class.vector.2, ptr %4, i32 0, i32 0
  %11 = load ptr, ptr %10, align 8, !tbaa !68
  %12 = getelementptr inbounds i32, ptr %11, i64 -1
  %13 = load i32, ptr %12, align 4, !tbaa !10
  store i32 %13, ptr %2, align 4
  br label %14

14:                                               ; preds = %9, %8
  %15 = load i32, ptr %2, align 4
  ret i32 %15
}

; Function Attrs: mustprogress nounwind uwtable
define linkonce_odr hidden void @_ZN6vectorIjLb0EjE8pop_backEv(ptr noundef nonnull align 8 dereferenceable(8) %0) #6 comdat align 2 {
  %2 = alloca ptr, align 8
  store ptr %0, ptr %2, align 8, !tbaa !66
  %3 = load ptr, ptr %2, align 8
  %4 = getelementptr inbounds nuw %class.vector.2, ptr %3, i32 0, i32 0
  %5 = load ptr, ptr %4, align 8, !tbaa !68
  %6 = getelementptr inbounds i32, ptr %5, i64 -1
  %7 = load i32, ptr %6, align 4, !tbaa !10
  %8 = add i32 %7, -1
  store i32 %8, ptr %6, align 4, !tbaa !10
  ret void
}

; Function Attrs: mustprogress nounwind uwtable
define linkonce_odr hidden noundef nonnull align 4 dereferenceable(4) ptr @_ZN6vectorIjLb0EjEixEj(ptr noundef nonnull align 8 dereferenceable(8) %0, i32 noundef %1) #6 comdat align 2 {
  %3 = alloca ptr, align 8
  %4 = alloca i32, align 4
  store ptr %0, ptr %3, align 8, !tbaa !66
  store i32 %1, ptr %4, align 4, !tbaa !10
  %5 = load ptr, ptr %3, align 8
  %6 = getelementptr inbounds nuw %class.vector.2, ptr %5, i32 0, i32 0
  %7 = load ptr, ptr %6, align 8, !tbaa !68
  %8 = load i32, ptr %4, align 4, !tbaa !10
  %9 = zext i32 %8 to i64
  %10 = getelementptr inbounds nuw i32, ptr %7, i64 %9
  ret ptr %10
}

; Function Attrs: mustprogress nounwind uwtable
define linkonce_odr hidden noundef nonnull align 4 dereferenceable(4) ptr @_ZN6vectorIjLb0EjE4backEv(ptr noundef nonnull align 8 dereferenceable(8) %0) #6 comdat align 2 {
  %2 = alloca ptr, align 8
  store ptr %0, ptr %2, align 8, !tbaa !66
  %3 = load ptr, ptr %2, align 8
  %4 = call noundef i32 @_ZNK6vectorIjLb0EjE4sizeEv(ptr noundef nonnull align 8 dereferenceable(8) %3)
  %5 = sub i32 %4, 1
  %6 = call noundef nonnull align 4 dereferenceable(4) ptr @_ZN6vectorIjLb0EjEixEj(ptr noundef nonnull align 8 dereferenceable(8) %3, i32 noundef %5)
  ret ptr %6
}

; Function Attrs: mustprogress uwtable
define hidden void @_ZN3sat12local_search3satEj(ptr noundef nonnull align 8 dereferenceable(232) %0, i32 noundef %1) #4 align 2 {
  %3 = alloca ptr, align 8
  %4 = alloca i32, align 4
  %5 = alloca i32, align 4
  %6 = alloca i32, align 4
  store ptr %0, ptr %3, align 8, !tbaa !3
  store i32 %1, ptr %4, align 4, !tbaa !10
  %7 = load ptr, ptr %3, align 8
  call void @llvm.lifetime.start.p0(i64 4, ptr %5) #3
  %8 = getelementptr inbounds nuw %"class.sat::local_search", ptr %7, i32 0, i32 12
  %9 = call noundef nonnull align 4 dereferenceable(4) ptr @_ZN6vectorIjLb0EjE4backEv(ptr noundef nonnull align 8 dereferenceable(8) %8)
  %10 = load i32, ptr %9, align 4, !tbaa !10
  store i32 %10, ptr %5, align 4, !tbaa !10
  call void @llvm.lifetime.start.p0(i64 4, ptr %6) #3
  %11 = getelementptr inbounds nuw %"class.sat::local_search", ptr %7, i32 0, i32 13
  %12 = load i32, ptr %4, align 4, !tbaa !10
  %13 = call noundef nonnull align 4 dereferenceable(4) ptr @_ZN6vectorIjLb0EjEixEj(ptr noundef nonnull align 8 dereferenceable(8) %11, i32 noundef %12)
  %14 = load i32, ptr %13, align 4, !tbaa !10
  store i32 %14, ptr %6, align 4, !tbaa !10
  %15 = load i32, ptr %5, align 4, !tbaa !10
  %16 = getelementptr inbounds nuw %"class.sat::local_search", ptr %7, i32 0, i32 12
  %17 = load i32, ptr %6, align 4, !tbaa !10
  %18 = call noundef nonnull align 4 dereferenceable(4) ptr @_ZN6vectorIjLb0EjEixEj(ptr noundef nonnull align 8 dereferenceable(8) %16, i32 noundef %17)
  store i32 %15, ptr %18, align 4, !tbaa !10
  %19 = load i32, ptr %6, align 4, !tbaa !10
  %20 = getelementptr inbounds nuw %"class.sat::local_search", ptr %7, i32 0, i32 13
  %21 = load i32, ptr %5, align 4, !tbaa !10
  %22 = call noundef nonnull align 4 dereferenceable(4) ptr @_ZN6vectorIjLb0EjEixEj(ptr noundef nonnull align 8 dereferenceable(8) %20, i32 noundef %21)
  store i32 %19, ptr %22, align 4, !tbaa !10
  %23 = getelementptr inbounds nuw %"class.sat::local_search", ptr %7, i32 0, i32 12
  call void @_ZN6vectorIjLb0EjE8pop_backEv(ptr noundef nonnull align 8 dereferenceable(8) %23)
  call void @llvm.lifetime.end.p0(i64 4, ptr %6) #3
  call void @llvm.lifetime.end.p0(i64 4, ptr %5) #3
  ret void
}