; Function Attrs: mustprogress nofree norecurse nosync nounwind willreturn memory(readwrite, inaccessiblemem: none) uwtable
define hidden void @_ZN3sat12local_search3satEj(ptr noundef nonnull readonly align 8 captures(none) dereferenceable(232) %0, i32 noundef %1) local_unnamed_addr #11 align 2 {
  %3 = getelementptr inbounds nuw i8, ptr %0, i64 96
  %4 = load ptr, ptr %3, align 8, !tbaa !9
  %5 = icmp eq ptr %4, null
  br i1 %5, label %_ZN6vectorIjLb0EjE4backEv.exit, label %6

6:                                                ; preds = %2
  %7 = getelementptr inbounds i8, ptr %4, i64 -4
  %8 = load i32, ptr %7, align 4, !tbaa !13
  %9 = add i32 %8, -1
  %10 = zext i32 %9 to i64
  br label %_ZN6vectorIjLb0EjE4backEv.exit

_ZN6vectorIjLb0EjE4backEv.exit:                   ; preds = %2, %6
  %.0.i.i = phi i64 [ %10, %6 ], [ 4294967295, %2 ]
  %11 = getelementptr inbounds nuw i32, ptr %4, i64 %.0.i.i
  %12 = load i32, ptr %11, align 4, !tbaa !13
  %13 = getelementptr inbounds nuw i8, ptr %0, i64 104
  %14 = load ptr, ptr %13, align 8, !tbaa !9
  %15 = zext i32 %1 to i64
  %16 = getelementptr inbounds nuw i32, ptr %14, i64 %15
  %17 = load i32, ptr %16, align 4, !tbaa !13
  %18 = zext i32 %17 to i64
  %19 = getelementptr inbounds nuw i32, ptr %4, i64 %18
  store i32 %12, ptr %19, align 4, !tbaa !13
  %20 = zext i32 %12 to i64
  %21 = getelementptr inbounds nuw i32, ptr %14, i64 %20
  store i32 %17, ptr %21, align 4, !tbaa !13
  %22 = getelementptr inbounds i8, ptr %4, i64 -4
  %23 = load i32, ptr %22, align 4, !tbaa !13
  %24 = add i32 %23, -1
  store i32 %24, ptr %22, align 4, !tbaa !13
  ret void
}